target datalayout = "e-m:e-p270:32:32-p271:32:32-p272:64:64-i64:64-i128:128-f80:128-n8:16:32:64-S128"
target triple = "x86_64-pc-linux-gnu"

%struct.mbedtls_des_context = type { [32 x i32] }

; Function Attrs: alwaysinline nounwind uwtable
define internal void @mbedtls_put_unaligned_uint32(ptr noundef %0, i32 noundef %1) #5 {
  %3 = alloca ptr, align 8
  %4 = alloca i32, align 4
  store ptr %0, ptr %3, align 8, !tbaa !22
  store i32 %1, ptr %4, align 4, !tbaa !12
  %5 = load ptr, ptr %3, align 8, !tbaa !22
  call void @llvm.memcpy.p0.p0.i64(ptr align 1 %5, ptr align 4 %4, i64 4, i1 false)
  ret void
}

; Function Attrs: alwaysinline nounwind uwtable
define internal i32 @mbedtls_get_unaligned_uint32(ptr noundef %0) #5 {
  %2 = alloca ptr, align 8
  %3 = alloca i32, align 4
  store ptr %0, ptr %2, align 8, !tbaa !22
  call void @llvm.lifetime.start.p0(i64 4, ptr %3) #8
  %4 = load ptr, ptr %2, align 8, !tbaa !22
  call void @llvm.memcpy.p0.p0.i64(ptr align 4 %3, ptr align 1 %4, i64 4, i1 false)
  %5 = load i32, ptr %3, align 4, !tbaa !12
  call void @llvm.lifetime.end.p0(i64 4, ptr %3) #8
  ret i32 %5
}

; Function Attrs: nounwind uwtable
define hidden i32 @mbedtls_des_crypt_ecb(ptr noundef %0, ptr noundef %1, ptr noundef %2) #0 {
  %4 = alloca ptr, align 8
  %5 = alloca ptr, align 8
  %6 = alloca ptr, align 8
  %7 = alloca i32, align 4
  %8 = alloca i32, align 4
  %9 = alloca i32, align 4
  %10 = alloca i32, align 4
  %11 = alloca ptr, align 8
  store ptr %0, ptr %4, align 8, !tbaa !3
  store ptr %1, ptr %5, align 8, !tbaa !10
  store ptr %2, ptr %6, align 8, !tbaa !10
  call void @llvm.lifetime.start.p0(i64 4, ptr %7) #8
  call void @llvm.lifetime.start.p0(i64 4, ptr %8) #8
  call void @llvm.lifetime.start.p0(i64 4, ptr %9) #8
  call void @llvm.lifetime.start.p0(i64 4, ptr %10) #8
  call void @llvm.lifetime.start.p0(i64 8, ptr %11) #8
  %12 = load ptr, ptr %4, align 8, !tbaa !3
  %13 = getelementptr inbounds nuw %struct.mbedtls_des_context, ptr %12, i32 0, i32 0
  %14 = getelementptr inbounds [32 x i32], ptr %13, i64 0, i64 0
  store ptr %14, ptr %11, align 8, !tbaa !19
  %15 = load ptr, ptr %5, align 8, !tbaa !10
  %16 = getelementptr inbounds i8, ptr %15, i64 0
  %17 = call i32 @mbedtls_get_unaligned_uint32(ptr noundef %16)
  %18 = call i32 @llvm.bswap.i32(i32 %17)
  store i32 %18, ptr %8, align 4, !tbaa !12
  %19 = load ptr, ptr %5, align 8, !tbaa !10
  %20 = getelementptr inbounds i8, ptr %19, i64 4
  %21 = call i32 @mbedtls_get_unaligned_uint32(ptr noundef %20)
  %22 = call i32 @llvm.bswap.i32(i32 %21)
  store i32 %22, ptr %9, align 4, !tbaa !12
  br label %23

23:                                               ; preds = %3
  %24 = load i32, ptr %8, align 4, !tbaa !12
  %25 = lshr i32 %24, 4
  %26 = load i32, ptr %9, align 4, !tbaa !12
  %27 = xor i32 %25, %26
  %28 = and i32 %27, 252645135
  store i32 %28, ptr %10, align 4, !tbaa !12
  %29 = load i32, ptr %10, align 4, !tbaa !12
  %30 = load i32, ptr %9, align 4, !tbaa !12
  %31 = xor i32 %30, %29
  store i32 %31, ptr %9, align 4, !tbaa !12
  %32 = load i32, ptr %10, align 4, !tbaa !12
  %33 = shl i32 %32, 4
  %34 = load i32, ptr %8, align 4, !tbaa !12
  %35 = xor i32 %34, %33
  store i32 %35, ptr %8, align 4, !tbaa !12
  %36 = load i32, ptr %8, align 4, !tbaa !12
  %37 = lshr i32 %36, 16
  %38 = load i32, ptr %9, align 4, !tbaa !12
  %39 = xor i32 %37, %38
  %40 = and i32 %39, 65535
  store i32 %40, ptr %10, align 4, !tbaa !12
  %41 = load i32, ptr %10, align 4, !tbaa !12
  %42 = load i32, ptr %9, align 4, !tbaa !12
  %43 = xor i32 %42, %41
  store i32 %43, ptr %9, align 4, !tbaa !12
  %44 = load i32, ptr %10, align 4, !tbaa !12
  %45 = shl i32 %44, 16
  %46 = load i32, ptr %8, align 4, !tbaa !12
  %47 = xor i32 %46, %45
  store i32 %47, ptr %8, align 4, !tbaa !12
  %48 = load i32, ptr %9, align 4, !tbaa !12
  %49 = lshr i32 %48, 2
  %50 = load i32, ptr %8, align 4, !tbaa !12
  %51 = xor i32 %49, %50
  %52 = and i32 %51, 858993459
  store i32 %52, ptr %10, align 4, !tbaa !12
  %53 = load i32, ptr %10, align 4, !tbaa !12
  %54 = load i32, ptr %8, align 4, !tbaa !12
  %55 = xor i32 %54, %53
  store i32 %55, ptr %8, align 4, !tbaa !12
  %56 = load i32, ptr %10, align 4, !tbaa !12
  %57 = shl i32 %56, 2
  %58 = load i32, ptr %9, align 4, !tbaa !12
  %59 = xor i32 %58, %57
  store i32 %59, ptr %9, align 4, !tbaa !12
  %60 = load i32, ptr %9, align 4, !tbaa !12
  %61 = lshr i32 %60, 8
  %62 = load i32, ptr %8, align 4, !tbaa !12
  %63 = xor i32 %61, %62
  %64 = and i32 %63, 16711935
  store i32 %64, ptr %10, align 4, !tbaa !12
  %65 = load i32, ptr %10, align 4, !tbaa !12
  %66 = load i32, ptr %8, align 4, !tbaa !12
  %67 = xor i32 %66, %65
  store i32 %67, ptr %8, align 4, !tbaa !12
  %68 = load i32, ptr %10, align 4, !tbaa !12
  %69 = shl i32 %68, 8
  %70 = load i32, ptr %9, align 4, !tbaa !12
  %71 = xor i32 %70, %69
  store i32 %71, ptr %9, align 4, !tbaa !12
  %72 = load i32, ptr %9, align 4, !tbaa !12
  %73 = shl i32 %72, 1
  %74 = load i32, ptr %9, align 4, !tbaa !12
  %75 = lshr i32 %74, 31
  %76 = or i32 %73, %75
  %77 = and i32 %76, -1
  store i32 %77, ptr %9, align 4, !tbaa !12
  %78 = load i32, ptr %8, align 4, !tbaa !12
  %79 = load i32, ptr %9, align 4, !tbaa !12
  %80 = xor i32 %78, %79
  %81 = and i32 %80, -1431655766
  store i32 %81, ptr %10, align 4, !tbaa !12
  %82 = load i32, ptr %10, align 4, !tbaa !12
  %83 = load i32, ptr %9, align 4, !tbaa !12
  %84 = xor i32 %83, %82
  store i32 %84, ptr %9, align 4, !tbaa !12
  %85 = load i32, ptr %10, align 4, !tbaa !12
  %86 = load i32, ptr %8, align 4, !tbaa !12
  %87 = xor i32 %86, %85
  store i32 %87, ptr %8, align 4, !tbaa !12
  %88 = load i32, ptr %8, align 4, !tbaa !12
  %89 = shl i32 %88, 1
  %90 = load i32, ptr %8, align 4, !tbaa !12
  %91 = lshr i32 %90, 31
  %92 = or i32 %89, %91
  %93 = and i32 %92, -1
  store i32 %93, ptr %8, align 4, !tbaa !12
  br label %94

94:                                               ; preds = %23
  br label %95

95:                                               ; preds = %94
  store i32 0, ptr %7, align 4, !tbaa !12
  br label %96

96:                                               ; preds = %246, %95
  %97 = load i32, ptr %7, align 4, !tbaa !12
  %98 = icmp slt i32 %97, 8
  br i1 %98, label %99, label %249

99:                                               ; preds = %96
  br label %100

100:                                              ; preds = %99
  %101 = load ptr, ptr %11, align 8, !tbaa !19
  %102 = getelementptr inbounds nuw i32, ptr %101, i32 1
  store ptr %102, ptr %11, align 8, !tbaa !19
  %103 = load i32, ptr %101, align 4, !tbaa !12
  %104 = load i32, ptr %9, align 4, !tbaa !12
  %105 = xor i32 %103, %104
  store i32 %105, ptr %10, align 4, !tbaa !12
  %106 = load i32, ptr %10, align 4, !tbaa !12
  %107 = and i32 %106, 63
  %108 = zext i32 %107 to i64
  %109 = getelementptr inbounds nuw [64 x i32], ptr @SB8, i64 0, i64 %108
  %110 = load i32, ptr %109, align 4, !tbaa !12
  %111 = load i32, ptr %10, align 4, !tbaa !12
  %112 = lshr i32 %111, 8
  %113 = and i32 %112, 63
  %114 = zext i32 %113 to i64
  %115 = getelementptr inbounds nuw [64 x i32], ptr @SB6, i64 0, i64 %114
  %116 = load i32, ptr %115, align 4, !tbaa !12
  %117 = xor i32 %110, %116
  %118 = load i32, ptr %10, align 4, !tbaa !12
  %119 = lshr i32 %118, 16
  %120 = and i32 %119, 63
  %121 = zext i32 %120 to i64
  %122 = getelementptr inbounds nuw [64 x i32], ptr @SB4, i64 0, i64 %121
  %123 = load i32, ptr %122, align 4, !tbaa !12
  %124 = xor i32 %117, %123
  %125 = load i32, ptr %10, align 4, !tbaa !12
  %126 = lshr i32 %125, 24
  %127 = and i32 %126, 63
  %128 = zext i32 %127 to i64
  %129 = getelementptr inbounds nuw [64 x i32], ptr @SB2, i64 0, i64 %128
  %130 = load i32, ptr %129, align 4, !tbaa !12
  %131 = xor i32 %124, %130
  %132 = load i32, ptr %8, align 4, !tbaa !12
  %133 = xor i32 %132, %131
  store i32 %133, ptr %8, align 4, !tbaa !12
  %134 = load ptr, ptr %11, align 8, !tbaa !19
  %135 = getelementptr inbounds nuw i32, ptr %134, i32 1
  store ptr %135, ptr %11, align 8, !tbaa !19
  %136 = load i32, ptr %134, align 4, !tbaa !12
  %137 = load i32, ptr %9, align 4, !tbaa !12
  %138 = shl i32 %137, 28
  %139 = load i32, ptr %9, align 4, !tbaa !12
  %140 = lshr i32 %139, 4
  %141 = or i32 %138, %140
  %142 = xor i32 %136, %141
  store i32 %142, ptr %10, align 4, !tbaa !12
  %143 = load i32, ptr %10, align 4, !tbaa !12
  %144 = and i32 %143, 63
  %145 = zext i32 %144 to i64
  %146 = getelementptr inbounds nuw [64 x i32], ptr @SB7, i64 0, i64 %145
  %147 = load i32, ptr %146, align 4, !tbaa !12
  %148 = load i32, ptr %10, align 4, !tbaa !12
  %149 = lshr i32 %148, 8
  %150 = and i32 %149, 63
  %151 = zext i32 %150 to i64
  %152 = getelementptr inbounds nuw [64 x i32], ptr @SB5, i64 0, i64 %151
  %153 = load i32, ptr %152, align 4, !tbaa !12
  %154 = xor i32 %147, %153
  %155 = load i32, ptr %10, align 4, !tbaa !12
  %156 = lshr i32 %155, 16
  %157 = and i32 %156, 63
  %158 = zext i32 %157 to i64
  %159 = getelementptr inbounds nuw [64 x i32], ptr @SB3, i64 0, i64 %158
  %160 = load i32, ptr %159, align 4, !tbaa !12
  %161 = xor i32 %154, %160
  %162 = load i32, ptr %10, align 4, !tbaa !12
  %163 = lshr i32 %162, 24
  %164 = and i32 %163, 63
  %165 = zext i32 %164 to i64
  %166 = getelementptr inbounds nuw [64 x i32], ptr @SB1, i64 0, i64 %165
  %167 = load i32, ptr %166, align 4, !tbaa !12
  %168 = xor i32 %161, %167
  %169 = load i32, ptr %8, align 4, !tbaa !12
  %170 = xor i32 %169, %168
  store i32 %170, ptr %8, align 4, !tbaa !12
  br label %171

171:                                              ; preds = %100
  br label %172

172:                                              ; preds = %171
  br label %173

173:                                              ; preds = %172
  %174 = load ptr, ptr %11, align 8, !tbaa !19
  %175 = getelementptr inbounds nuw i32, ptr %174, i32 1
  store ptr %175, ptr %11, align 8, !tbaa !19
  %176 = load i32, ptr %174, align 4, !tbaa !12
  %177 = load i32, ptr %8, align 4, !tbaa !12
  %178 = xor i32 %176, %177
  store i32 %178, ptr %10, align 4, !tbaa !12
  %179 = load i32, ptr %10, align 4, !tbaa !12
  %180 = and i32 %179, 63
  %181 = zext i32 %180 to i64
  %182 = getelementptr inbounds nuw [64 x i32], ptr @SB8, i64 0, i64 %181
  %183 = load i32, ptr %182, align 4, !tbaa !12
  %184 = load i32, ptr %10, align 4, !tbaa !12
  %185 = lshr i32 %184, 8
  %186 = and i32 %185, 63
  %187 = zext i32 %186 to i64
  %188 = getelementptr inbounds nuw [64 x i32], ptr @SB6, i64 0, i64 %187
  %189 = load i32, ptr %188, align 4, !tbaa !12
  %190 = xor i32 %183, %189
  %191 = load i32, ptr %10, align 4, !tbaa !12
  %192 = lshr i32 %191, 16
  %193 = and i32 %192, 63
  %194 = zext i32 %193 to i64
  %195 = getelementptr inbounds nuw [64 x i32], ptr @SB4, i64 0, i64 %194
  %196 = load i32, ptr %195, align 4, !tbaa !12
  %197 = xor i32 %190, %196
  %198 = load i32, ptr %10, align 4, !tbaa !12
  %199 = lshr i32 %198, 24
  %200 = and i32 %199, 63
  %201 = zext i32 %200 to i64
  %202 = getelementptr inbounds nuw [64 x i32], ptr @SB2, i64 0, i64 %201
  %203 = load i32, ptr %202, align 4, !tbaa !12
  %204 = xor i32 %197, %203
  %205 = load i32, ptr %9, align 4, !tbaa !12
  %206 = xor i32 %205, %204
  store i32 %206, ptr %9, align 4, !tbaa !12
  %207 = load ptr, ptr %11, align 8, !tbaa !19
  %208 = getelementptr inbounds nuw i32, ptr %207, i32 1
  store ptr %208, ptr %11, align 8, !tbaa !19
  %209 = load i32, ptr %207, align 4, !tbaa !12
  %210 = load i32, ptr %8, align 4, !tbaa !12
  %211 = shl i32 %210, 28
  %212 = load i32, ptr %8, align 4, !tbaa !12
  %213 = lshr i32 %212, 4
  %214 = or i32 %211, %213
  %215 = xor i32 %209, %214
  store i32 %215, ptr %10, align 4, !tbaa !12
  %216 = load i32, ptr %10, align 4, !tbaa !12
  %217 = and i32 %216, 63
  %218 = zext i32 %217 to i64
  %219 = getelementptr inbounds nuw [64 x i32], ptr @SB7, i64 0, i64 %218
  %220 = load i32, ptr %219, align 4, !tbaa !12
  %221 = load i32, ptr %10, align 4, !tbaa !12
  %222 = lshr i32 %221, 8
  %223 = and i32 %222, 63
  %224 = zext i32 %223 to i64
  %225 = getelementptr inbounds nuw [64 x i32], ptr @SB5, i64 0, i64 %224
  %226 = load i32, ptr %225, align 4, !tbaa !12
  %227 = xor i32 %220, %226
  %228 = load i32, ptr %10, align 4, !tbaa !12
  %229 = lshr i32 %228, 16
  %230 = and i32 %229, 63
  %231 = zext i32 %230 to i64
  %232 = getelementptr inbounds nuw [64 x i32], ptr @SB3, i64 0, i64 %231
  %233 = load i32, ptr %232, align 4, !tbaa !12
  %234 = xor i32 %227, %233
  %235 = load i32, ptr %10, align 4, !tbaa !12
  %236 = lshr i32 %235, 24
  %237 = and i32 %236, 63
  %238 = zext i32 %237 to i64
  %239 = getelementptr inbounds nuw [64 x i32], ptr @SB1, i64 0, i64 %238
  %240 = load i32, ptr %239, align 4, !tbaa !12
  %241 = xor i32 %234, %240
  %242 = load i32, ptr %9, align 4, !tbaa !12
  %243 = xor i32 %242, %241
  store i32 %243, ptr %9, align 4, !tbaa !12
  br label %244

244:                                              ; preds = %173
  br label %245

245:                                              ; preds = %244
  br label %246

246:                                              ; preds = %245
  %247 = load i32, ptr %7, align 4, !tbaa !12
  %248 = add nsw i32 %247, 1
  store i32 %248, ptr %7, align 4, !tbaa !12
  br label %96, !llvm.loop !26

249:                                              ; preds = %96
  br label %250

250:                                              ; preds = %249
  %251 = load i32, ptr %9, align 4, !tbaa !12
  %252 = shl i32 %251, 31
  %253 = load i32, ptr %9, align 4, !tbaa !12
  %254 = lshr i32 %253, 1
  %255 = or i32 %252, %254
  %256 = and i32 %255, -1
  store i32 %256, ptr %9, align 4, !tbaa !12
  %257 = load i32, ptr %9, align 4, !tbaa !12
  %258 = load i32, ptr %8, align 4, !tbaa !12
  %259 = xor i32 %257, %258
  %260 = and i32 %259, -1431655766
  store i32 %260, ptr %10, align 4, !tbaa !12
  %261 = load i32, ptr %10, align 4, !tbaa !12
  %262 = load i32, ptr %9, align 4, !tbaa !12
  %263 = xor i32 %262, %261
  store i32 %263, ptr %9, align 4, !tbaa !12
  %264 = load i32, ptr %10, align 4, !tbaa !12
  %265 = load i32, ptr %8, align 4, !tbaa !12
  %266 = xor i32 %265, %264
  store i32 %266, ptr %8, align 4, !tbaa !12
  %267 = load i32, ptr %8, align 4, !tbaa !12
  %268 = shl i32 %267, 31
  %269 = load i32, ptr %8, align 4, !tbaa !12
  %270 = lshr i32 %269, 1
  %271 = or i32 %268, %270
  %272 = and i32 %271, -1
  store i32 %272, ptr %8, align 4, !tbaa !12
  %273 = load i32, ptr %8, align 4, !tbaa !12
  %274 = lshr i32 %273, 8
  %275 = load i32, ptr %9, align 4, !tbaa !12
  %276 = xor i32 %274, %275
  %277 = and i32 %276, 16711935
  store i32 %277, ptr %10, align 4, !tbaa !12
  %278 = load i32, ptr %10, align 4, !tbaa !12
  %279 = load i32, ptr %9, align 4, !tbaa !12
  %280 = xor i32 %279, %278
  store i32 %280, ptr %9, align 4, !tbaa !12
  %281 = load i32, ptr %10, align 4, !tbaa !12
  %282 = shl i32 %281, 8
  %283 = load i32, ptr %8, align 4, !tbaa !12
  %284 = xor i32 %283, %282
  store i32 %284, ptr %8, align 4, !tbaa !12
  %285 = load i32, ptr %8, align 4, !tbaa !12
  %286 = lshr i32 %285, 2
  %287 = load i32, ptr %9, align 4, !tbaa !12
  %288 = xor i32 %286, %287
  %289 = and i32 %288, 858993459
  store i32 %289, ptr %10, align 4, !tbaa !12
  %290 = load i32, ptr %10, align 4, !tbaa !12
  %291 = load i32, ptr %9, align 4, !tbaa !12
  %292 = xor i32 %291, %290
  store i32 %292, ptr %9, align 4, !tbaa !12
  %293 = load i32, ptr %10, align 4, !tbaa !12
  %294 = shl i32 %293, 2
  %295 = load i32, ptr %8, align 4, !tbaa !12
  %296 = xor i32 %295, %294
  store i32 %296, ptr %8, align 4, !tbaa !12
  %297 = load i32, ptr %9, align 4, !tbaa !12
  %298 = lshr i32 %297, 16
  %299 = load i32, ptr %8, align 4, !tbaa !12
  %300 = xor i32 %298, %299
  %301 = and i32 %300, 65535
  store i32 %301, ptr %10, align 4, !tbaa !12
  %302 = load i32, ptr %10, align 4, !tbaa !12
  %303 = load i32, ptr %8, align 4, !tbaa !12
  %304 = xor i32 %303, %302
  store i32 %304, ptr %8, align 4, !tbaa !12
  %305 = load i32, ptr %10, align 4, !tbaa !12
  %306 = shl i32 %305, 16
  %307 = load i32, ptr %9, align 4, !tbaa !12
  %308 = xor i32 %307, %306
  store i32 %308, ptr %9, align 4, !tbaa !12
  %309 = load i32, ptr %9, align 4, !tbaa !12
  %310 = lshr i32 %309, 4
  %311 = load i32, ptr %8, align 4, !tbaa !12
  %312 = xor i32 %310, %311
  %313 = and i32 %312, 252645135
  store i32 %313, ptr %10, align 4, !tbaa !12
  %314 = load i32, ptr %10, align 4, !tbaa !12
  %315 = load i32, ptr %8, align 4, !tbaa !12
  %316 = xor i32 %315, %314
  store i32 %316, ptr %8, align 4, !tbaa !12
  %317 = load i32, ptr %10, align 4, !tbaa !12
  %318 = shl i32 %317, 4
  %319 = load i32, ptr %9, align 4, !tbaa !12
  %320 = xor i32 %319, %318
  store i32 %320, ptr %9, align 4, !tbaa !12
  br label %321

321:                                              ; preds = %250
  br label %322

322:                                              ; preds = %321
  %323 = load ptr, ptr %6, align 8, !tbaa !10
  %324 = getelementptr inbounds i8, ptr %323, i64 0
  %325 = load i32, ptr %9, align 4, !tbaa !12
  %326 = call i32 @llvm.bswap.i32(i32 %325)
  call void @mbedtls_put_unaligned_uint32(ptr noundef %324, i32 noundef %326)
  %327 = load ptr, ptr %6, align 8, !tbaa !10
  %328 = getelementptr inbounds i8, ptr %327, i64 4
  %329 = load i32, ptr %8, align 4, !tbaa !12
  %330 = call i32 @llvm.bswap.i32(i32 %329)
  call void @mbedtls_put_unaligned_uint32(ptr noundef %328, i32 noundef %330)
  call void @llvm.lifetime.end.p0(i64 8, ptr %11) #8
  call void @llvm.lifetime.end.p0(i64 4, ptr %10) #8
  call void @llvm.lifetime.end.p0(i64 4, ptr %9) #8
  call void @llvm.lifetime.end.p0(i64 4, ptr %8) #8
  call void @llvm.lifetime.end.p0(i64 4, ptr %7) #8
  ret i32 0
}