; Function Attrs: nofree norecurse nosync nounwind memory(argmem: readwrite) uwtable
define hidden noundef i32 @mbedtls_des_crypt_ecb(ptr noundef readonly captures(none) %0, ptr noundef readonly captures(none) %1, ptr noundef writeonly captures(none) %2) local_unnamed_addr #4 {
  %.0.copyload.i110 = load i32, ptr %1, align 1
  %4 = tail call i32 @llvm.bswap.i32(i32 %.0.copyload.i110)
  %5 = getelementptr inbounds nuw i8, ptr %1, i64 4
  %.0.copyload.i = load i32, ptr %5, align 1
  %6 = tail call i32 @llvm.bswap.i32(i32 %.0.copyload.i)
  %7 = lshr i32 %4, 4
  %8 = xor i32 %7, %6
  %9 = and i32 %8, 252645135
  %10 = xor i32 %9, %6
  %11 = shl nuw i32 %9, 4
  %12 = xor i32 %11, %4
  %13 = lshr i32 %12, 16
  %.masked = and i32 %10, 65535
  %14 = xor i32 %13, %.masked
  %15 = xor i32 %14, %10
  %16 = shl nuw i32 %14, 16
  %17 = xor i32 %16, %12
  %18 = lshr i32 %15, 2
  %19 = xor i32 %18, %17
  %20 = and i32 %19, 858993459
  %21 = xor i32 %20, %17
  %22 = shl nuw i32 %20, 2
  %23 = xor i32 %22, %15
  %24 = lshr i32 %23, 8
  %25 = xor i32 %24, %21
  %26 = and i32 %25, 16711935
  %27 = xor i32 %26, %21
  %28 = shl nuw i32 %26, 8
  %29 = xor i32 %28, %23
  %30 = tail call i32 @llvm.fshl.i32(i32 %29, i32 %29, i32 1)
  %31 = xor i32 %30, %27
  %32 = and i32 %31, -1431655766
  %33 = xor i32 %32, %30
  %34 = xor i32 %32, %27
  %35 = tail call i32 @llvm.fshl.i32(i32 %34, i32 %34, i32 1)
  br label %36

36:                                               ; preds = %3, %36
  %.0114 = phi ptr [ %0, %3 ], [ %112, %36 ]
  %.0106113 = phi i32 [ %33, %3 ], [ %142, %36 ]
  %.0107112 = phi i32 [ %35, %3 ], [ %89, %36 ]
  %.0108111 = phi i32 [ 0, %3 ], [ %143, %36 ]
  %37 = getelementptr inbounds nuw i8, ptr %.0114, i64 4
  %38 = load i32, ptr %.0114, align 4, !tbaa !10
  %39 = xor i32 %38, %.0106113
  %40 = and i32 %39, 63
  %41 = zext nneg i32 %40 to i64
  %42 = getelementptr inbounds nuw [64 x i32], ptr @SB8, i64 0, i64 %41
  %43 = load i32, ptr %42, align 4, !tbaa !10
  %44 = lshr i32 %39, 8
  %45 = and i32 %44, 63
  %46 = zext nneg i32 %45 to i64
  %47 = getelementptr inbounds nuw [64 x i32], ptr @SB6, i64 0, i64 %46
  %48 = load i32, ptr %47, align 4, !tbaa !10
  %49 = lshr i32 %39, 16
  %50 = and i32 %49, 63
  %51 = zext nneg i32 %50 to i64
  %52 = getelementptr inbounds nuw [64 x i32], ptr @SB4, i64 0, i64 %51
  %53 = load i32, ptr %52, align 4, !tbaa !10
  %54 = lshr i32 %39, 24
  %55 = and i32 %54, 63
  %56 = zext nneg i32 %55 to i64
  %57 = getelementptr inbounds nuw [64 x i32], ptr @SB2, i64 0, i64 %56
  %58 = load i32, ptr %57, align 4, !tbaa !10
  %59 = getelementptr inbounds nuw i8, ptr %.0114, i64 8
  %60 = load i32, ptr %37, align 4, !tbaa !10
  %61 = tail call i32 @llvm.fshl.i32(i32 %.0106113, i32 %.0106113, i32 28)
  %62 = xor i32 %60, %61
  %63 = and i32 %62, 63
  %64 = zext nneg i32 %63 to i64
  %65 = getelementptr inbounds nuw [64 x i32], ptr @SB7, i64 0, i64 %64
  %66 = load i32, ptr %65, align 4, !tbaa !10
  %67 = lshr i32 %62, 8
  %68 = and i32 %67, 63
  %69 = zext nneg i32 %68 to i64
  %70 = getelementptr inbounds nuw [64 x i32], ptr @SB5, i64 0, i64 %69
  %71 = load i32, ptr %70, align 4, !tbaa !10
  %72 = lshr i32 %62, 16
  %73 = and i32 %72, 63
  %74 = zext nneg i32 %73 to i64
  %75 = getelementptr inbounds nuw [64 x i32], ptr @SB3, i64 0, i64 %74
  %76 = load i32, ptr %75, align 4, !tbaa !10
  %77 = lshr i32 %62, 24
  %78 = and i32 %77, 63
  %79 = zext nneg i32 %78 to i64
  %80 = getelementptr inbounds nuw [64 x i32], ptr @SB1, i64 0, i64 %79
  %81 = load i32, ptr %80, align 4, !tbaa !10
  %82 = xor i32 %43, %.0107112
  %83 = xor i32 %82, %48
  %84 = xor i32 %83, %53
  %85 = xor i32 %84, %58
  %86 = xor i32 %85, %66
  %87 = xor i32 %86, %71
  %88 = xor i32 %87, %76
  %89 = xor i32 %88, %81
  %90 = getelementptr inbounds nuw i8, ptr %.0114, i64 12
  %91 = load i32, ptr %59, align 4, !tbaa !10
  %92 = xor i32 %89, %91
  %93 = and i32 %92, 63
  %94 = zext nneg i32 %93 to i64
  %95 = getelementptr inbounds nuw [64 x i32], ptr @SB8, i64 0, i64 %94
  %96 = load i32, ptr %95, align 4, !tbaa !10
  %97 = lshr i32 %92, 8
  %98 = and i32 %97, 63
  %99 = zext nneg i32 %98 to i64
  %100 = getelementptr inbounds nuw [64 x i32], ptr @SB6, i64 0, i64 %99
  %101 = load i32, ptr %100, align 4, !tbaa !10
  %102 = lshr i32 %92, 16
  %103 = and i32 %102, 63
  %104 = zext nneg i32 %103 to i64
  %105 = getelementptr inbounds nuw [64 x i32], ptr @SB4, i64 0, i64 %104
  %106 = load i32, ptr %105, align 4, !tbaa !10
  %107 = lshr i32 %92, 24
  %108 = and i32 %107, 63
  %109 = zext nneg i32 %108 to i64
  %110 = getelementptr inbounds nuw [64 x i32], ptr @SB2, i64 0, i64 %109
  %111 = load i32, ptr %110, align 4, !tbaa !10
  %112 = getelementptr inbounds nuw i8, ptr %.0114, i64 16
  %113 = load i32, ptr %90, align 4, !tbaa !10
  %114 = tail call i32 @llvm.fshl.i32(i32 %89, i32 %89, i32 28)
  %115 = xor i32 %113, %114
  %116 = and i32 %115, 63
  %117 = zext nneg i32 %116 to i64
  %118 = getelementptr inbounds nuw [64 x i32], ptr @SB7, i64 0, i64 %117
  %119 = load i32, ptr %118, align 4, !tbaa !10
  %120 = lshr i32 %115, 8
  %121 = and i32 %120, 63
  %122 = zext nneg i32 %121 to i64
  %123 = getelementptr inbounds nuw [64 x i32], ptr @SB5, i64 0, i64 %122
  %124 = load i32, ptr %123, align 4, !tbaa !10
  %125 = lshr i32 %115, 16
  %126 = and i32 %125, 63
  %127 = zext nneg i32 %126 to i64
  %128 = getelementptr inbounds nuw [64 x i32], ptr @SB3, i64 0, i64 %127
  %129 = load i32, ptr %128, align 4, !tbaa !10
  %130 = lshr i32 %115, 24
  %131 = and i32 %130, 63
  %132 = zext nneg i32 %131 to i64
  %133 = getelementptr inbounds nuw [64 x i32], ptr @SB1, i64 0, i64 %132
  %134 = load i32, ptr %133, align 4, !tbaa !10
  %135 = xor i32 %96, %101
  %136 = xor i32 %135, %106
  %137 = xor i32 %136, %111
  %138 = xor i32 %137, %119
  %139 = xor i32 %138, %124
  %140 = xor i32 %139, %129
  %141 = xor i32 %140, %134
  %142 = xor i32 %141, %.0106113
  %143 = add nuw nsw i32 %.0108111, 1
  %exitcond.not = icmp eq i32 %143, 8
  br i1 %exitcond.not, label %144, label %36, !llvm.loop !16

144:                                              ; preds = %36
  %145 = tail call i32 @llvm.fshl.i32(i32 %142, i32 %142, i32 31)
  %146 = xor i32 %145, %89
  %147 = and i32 %146, -1431655766
  %148 = xor i32 %147, %145
  %149 = xor i32 %147, %89
  %150 = tail call i32 @llvm.fshl.i32(i32 %149, i32 %149, i32 31)
  %151 = lshr i32 %150, 8
  %152 = xor i32 %151, %148
  %153 = and i32 %152, 16711935
  %154 = xor i32 %153, %148
  %155 = shl nuw i32 %153, 8
  %156 = xor i32 %155, %150
  %157 = lshr i32 %156, 2
  %158 = xor i32 %157, %154
  %159 = and i32 %158, 858993459
  %160 = xor i32 %159, %154
  %161 = shl nuw i32 %159, 2
  %162 = xor i32 %161, %156
  %163 = lshr i32 %160, 16
  %.masked109 = and i32 %162, 65535
  %164 = xor i32 %.masked109, %163
  %165 = xor i32 %164, %162
  %166 = shl nuw i32 %164, 16
  %167 = xor i32 %166, %160
  %168 = lshr i32 %167, 4
  %169 = xor i32 %168, %165
  %170 = and i32 %169, 252645135
  %171 = xor i32 %170, %165
  %172 = shl nuw i32 %170, 4
  %173 = xor i32 %172, %167
  %174 = tail call i32 @llvm.bswap.i32(i32 %173)
  store i32 %174, ptr %2, align 1
  %175 = getelementptr inbounds nuw i8, ptr %2, i64 4
  %176 = tail call i32 @llvm.bswap.i32(i32 %171)
  store i32 %176, ptr %175, align 1
  ret i32 0
}